target datalayout = "e-m:e-p270:32:32-p271:32:32-p272:64:64-i64:64-i128:128-f80:128-n8:16:32:64-S128"
target triple = "x86_64-pc-linux-gnu"

%"struct.faiss::IDSelectorRange" = type <{ %"struct.faiss::IDSelector", i64, i64, i8, [7 x i8] }>
%"struct.faiss::IDSelector" = type { ptr }

; Function Attrs: mustprogress nounwind uwtable
define noundef zeroext i1 @_ZNK5faiss15IDSelectorRange9is_memberEl(ptr noundef nonnull align 8 dereferenceable(25) %0, i64 noundef %1) unnamed_addr #0 align 2 {
  %3 = alloca ptr, align 8
  %4 = alloca i64, align 8
  store ptr %0, ptr %3, align 8
  store i64 %1, ptr %4, align 8
  %5 = load ptr, ptr %3, align 8
  %6 = load i64, ptr %4, align 8
  %7 = getelementptr inbounds %"struct.faiss::IDSelectorRange", ptr %5, i32 0, i32 1
  %8 = load i64, ptr %7, align 8
  %9 = icmp sge i64 %6, %8
  br i1 %9, label %10, label %15

10:                                               ; preds = %2
  %11 = load i64, ptr %4, align 8
  %12 = getelementptr inbounds %"struct.faiss::IDSelectorRange", ptr %5, i32 0, i32 2
  %13 = load i64, ptr %12, align 8
  %14 = icmp slt i64 %11, %13
  br label %15

15:                                               ; preds = %10, %2
  %16 = phi i1 [ false, %2 ], [ %14, %10 ]
  ret i1 %16
}