; Function Attrs: mustprogress nofree norecurse nosync nounwind willreturn memory(argmem: read) uwtable
define noundef zeroext i1 @_ZNK5faiss15IDSelectorRange9is_memberEl(ptr nocapture noundef nonnull readonly align 8 dereferenceable(25) %0, i64 noundef %1) unnamed_addr #0 align 2 {
  %3 = getelementptr inbounds i8, ptr %0, i64 8
  %4 = load i64, ptr %3, align 8
  %.not = icmp sle i64 %4, %1
  %5 = getelementptr inbounds i8, ptr %0, i64 16
  %6 = load i64, ptr %5, align 8
  %7 = icmp sgt i64 %6, %1
  %8 = select i1 %.not, i1 %7, i1 false
  ret i1 %8
}